; Function Attrs: mustprogress uwtable
define hidden noundef zeroext i1 @_ZN6google8protobuf10TextFormat15ParseFromStringERKNSt7__cxx1112basic_stringIcSt11char_traitsIcESaIcEEEPNS0_7MessageE(ptr noundef nonnull readonly align 8 captures(none) dereferenceable(32) %0, ptr noundef %1) local_unnamed_addr #3 align 2 personality ptr @__gxx_personality_v0 {
.noexc:
  %2 = alloca %"class.google::protobuf::io::ArrayInputStream", align 8
  %3 = alloca %"class.google::protobuf::TextFormat::Parser", align 8
  call void @llvm.lifetime.start.p0(i64 40, ptr nonnull %3) #31
  %4 = getelementptr inbounds nuw i8, ptr %3, i64 32
  call void @llvm.memset.p0.i64(ptr noundef nonnull align 8 dereferenceable(36) %3, i8 0, i64 32, i1 false)
  store i32 2147483647, ptr %4, align 8, !tbaa !137
  %5 = getelementptr inbounds nuw i8, ptr %0, i64 8
  %6 = load i64, ptr %5, align 8, !tbaa !9
  %7 = tail call fastcc noundef zeroext i1 @_ZN6google8protobuf12_GLOBAL__N_119CheckParseInputSizeENS0_20stringpiece_internal11StringPieceEPNS0_2io14ErrorCollectorE(i64 %6, ptr noundef null)
  br i1 %7, label %.noexc3, label %_ZN6google8protobuf10TextFormat6Parser15ParseFromStringERKNSt7__cxx1112basic_stringIcSt11char_traitsIcESaIcEEEPNS0_7MessageE.exit

.noexc3:                                          ; preds = %.noexc
  call void @llvm.lifetime.start.p0(i64 32, ptr nonnull %2) #31
  %8 = load ptr, ptr %0, align 8, !tbaa !48
  %9 = load i64, ptr %5, align 8, !tbaa !9
  %10 = trunc i64 %9 to i32
  call void @_ZN6google8protobuf2io16ArrayInputStreamC1EPKvii(ptr noundef nonnull align 8 dereferenceable(32) %2, ptr noundef %8, i32 noundef %10, i32 noundef -1)
  %11 = call noundef zeroext i1 @_ZN6google8protobuf10TextFormat6Parser5ParseEPNS0_2io19ZeroCopyInputStreamEPNS0_7MessageE(ptr noundef nonnull readonly align 8 dereferenceable(36) %3, ptr noundef nonnull %2, ptr noundef %1)
  call void @llvm.lifetime.end.p0(i64 32, ptr nonnull %2) #31
  br label %_ZN6google8protobuf10TextFormat6Parser15ParseFromStringERKNSt7__cxx1112basic_stringIcSt11char_traitsIcESaIcEEEPNS0_7MessageE.exit

_ZN6google8protobuf10TextFormat6Parser15ParseFromStringERKNSt7__cxx1112basic_stringIcSt11char_traitsIcESaIcEEEPNS0_7MessageE.exit: ; preds = %.noexc3, %.noexc
  %.0.i = phi i1 [ %11, %.noexc3 ], [ false, %.noexc ]
  call void @llvm.lifetime.end.p0(i64 40, ptr nonnull %3) #31
  ret i1 %.0.i
}